target datalayout = "e-m:e-p270:32:32-p271:32:32-p272:64:64-i64:64-i128:128-f80:128-n8:16:32:64-S128"
target triple = "x86_64-pc-linux-gnu"

@.str = private unnamed_addr constant [34 x i8] c"[PATH creation] add a smooth node\00", align 1
@.str.1 = private unnamed_addr constant [33 x i8] c"[PATH creation] add a sharp node\00", align 1
@.str.2 = private unnamed_addr constant [40 x i8] c"[PATH creation] terminate path creation\00", align 1
@.str.3 = private unnamed_addr constant [48 x i8] c"[PATH on node] switch between smooth/sharp node\00", align 1
@.str.4 = private unnamed_addr constant [31 x i8] c"[PATH on node] remove the node\00", align 1
@.str.5 = private unnamed_addr constant [34 x i8] c"[PATH on feather] reset curvature\00", align 1
@.str.6 = private unnamed_addr constant [27 x i8] c"[PATH on segment] add node\00", align 1
@.str.7 = private unnamed_addr constant [19 x i8] c"[PATH] change size\00", align 1
@.str.8 = private unnamed_addr constant [27 x i8] c"[PATH] change feather size\00", align 1
@.str.9 = private unnamed_addr constant [22 x i8] c"[PATH] change opacity\00", align 1

; Function Attrs: nounwind uwtable
define internal ptr @_path_setup_mouse_actions(ptr noundef %0) #0 {
  %2 = alloca ptr, align 8
  %3 = alloca ptr, align 8
  store ptr %0, ptr %2, align 8, !tbaa !17
  call void @llvm.lifetime.start.p0(i64 8, ptr %3) #13
  store ptr null, ptr %3, align 8, !tbaa !19
  %4 = load ptr, ptr %3, align 8, !tbaa !19
  %5 = call ptr @dcgettext(ptr noundef null, ptr noundef @.str, i32 noundef 5) #13
  %6 = call ptr @dt_mouse_action_create_simple(ptr noundef %4, i32 noundef 0, i32 noundef 0, ptr noundef %5)
  store ptr %6, ptr %3, align 8, !tbaa !19
  %7 = load ptr, ptr %3, align 8, !tbaa !19
  %8 = call ptr @dcgettext(ptr noundef null, ptr noundef @.str.1, i32 noundef 5) #13
  %9 = call ptr @dt_mouse_action_create_simple(ptr noundef %7, i32 noundef 0, i32 noundef 4, ptr noundef %8)
  store ptr %9, ptr %3, align 8, !tbaa !19
  %10 = load ptr, ptr %3, align 8, !tbaa !19
  %11 = call ptr @dcgettext(ptr noundef null, ptr noundef @.str.2, i32 noundef 5) #13
  %12 = call ptr @dt_mouse_action_create_simple(ptr noundef %10, i32 noundef 1, i32 noundef 0, ptr noundef %11)
  store ptr %12, ptr %3, align 8, !tbaa !19
  %13 = load ptr, ptr %3, align 8, !tbaa !19
  %14 = call ptr @dcgettext(ptr noundef null, ptr noundef @.str.3, i32 noundef 5) #13
  %15 = call ptr @dt_mouse_action_create_simple(ptr noundef %13, i32 noundef 0, i32 noundef 4, ptr noundef %14)
  store ptr %15, ptr %3, align 8, !tbaa !19
  %16 = load ptr, ptr %3, align 8, !tbaa !19
  %17 = call ptr @dcgettext(ptr noundef null, ptr noundef @.str.4, i32 noundef 5) #13
  %18 = call ptr @dt_mouse_action_create_simple(ptr noundef %16, i32 noundef 1, i32 noundef 0, ptr noundef %17)
  store ptr %18, ptr %3, align 8, !tbaa !19
  %19 = load ptr, ptr %3, align 8, !tbaa !19
  %20 = call ptr @dcgettext(ptr noundef null, ptr noundef @.str.5, i32 noundef 5) #13
  %21 = call ptr @dt_mouse_action_create_simple(ptr noundef %19, i32 noundef 1, i32 noundef 0, ptr noundef %20)
  store ptr %21, ptr %3, align 8, !tbaa !19
  %22 = load ptr, ptr %3, align 8, !tbaa !19
  %23 = call ptr @dcgettext(ptr noundef null, ptr noundef @.str.6, i32 noundef 5) #13
  %24 = call ptr @dt_mouse_action_create_simple(ptr noundef %22, i32 noundef 0, i32 noundef 4, ptr noundef %23)
  store ptr %24, ptr %3, align 8, !tbaa !19
  %25 = load ptr, ptr %3, align 8, !tbaa !19
  %26 = call ptr @dcgettext(ptr noundef null, ptr noundef @.str.7, i32 noundef 5) #13
  %27 = call ptr @dt_mouse_action_create_simple(ptr noundef %25, i32 noundef 3, i32 noundef 0, ptr noundef %26)
  store ptr %27, ptr %3, align 8, !tbaa !19
  %28 = load ptr, ptr %3, align 8, !tbaa !19
  %29 = call ptr @dcgettext(ptr noundef null, ptr noundef @.str.8, i32 noundef 5) #13
  %30 = call ptr @dt_mouse_action_create_simple(ptr noundef %28, i32 noundef 3, i32 noundef 1, ptr noundef %29)
  store ptr %30, ptr %3, align 8, !tbaa !19
  %31 = load ptr, ptr %3, align 8, !tbaa !19
  %32 = call ptr @dcgettext(ptr noundef null, ptr noundef @.str.9, i32 noundef 5) #13
  %33 = call ptr @dt_mouse_action_create_simple(ptr noundef %31, i32 noundef 3, i32 noundef 4, ptr noundef %32)
  store ptr %33, ptr %3, align 8, !tbaa !19
  %34 = load ptr, ptr %3, align 8, !tbaa !19
  call void @llvm.lifetime.end.p0(i64 8, ptr %3) #13
  ret ptr %34
}