; Function Attrs: nounwind uwtable
define internal ptr @_path_setup_mouse_actions(ptr readnone captures(none) %0) #3 {
  %2 = tail call ptr @dcgettext(ptr noundef null, ptr noundef nonnull @.str, i32 noundef 5) #21
  %3 = tail call ptr @dt_mouse_action_create_simple(ptr noundef null, i32 noundef 0, i32 noundef 0, ptr noundef %2) #21
  %4 = tail call ptr @dcgettext(ptr noundef null, ptr noundef nonnull @.str.1, i32 noundef 5) #21
  %5 = tail call ptr @dt_mouse_action_create_simple(ptr noundef %3, i32 noundef 0, i32 noundef 4, ptr noundef %4) #21
  %6 = tail call ptr @dcgettext(ptr noundef null, ptr noundef nonnull @.str.2, i32 noundef 5) #21
  %7 = tail call ptr @dt_mouse_action_create_simple(ptr noundef %5, i32 noundef 1, i32 noundef 0, ptr noundef %6) #21
  %8 = tail call ptr @dcgettext(ptr noundef null, ptr noundef nonnull @.str.3, i32 noundef 5) #21
  %9 = tail call ptr @dt_mouse_action_create_simple(ptr noundef %7, i32 noundef 0, i32 noundef 4, ptr noundef %8) #21
  %10 = tail call ptr @dcgettext(ptr noundef null, ptr noundef nonnull @.str.4, i32 noundef 5) #21
  %11 = tail call ptr @dt_mouse_action_create_simple(ptr noundef %9, i32 noundef 1, i32 noundef 0, ptr noundef %10) #21
  %12 = tail call ptr @dcgettext(ptr noundef null, ptr noundef nonnull @.str.5, i32 noundef 5) #21
  %13 = tail call ptr @dt_mouse_action_create_simple(ptr noundef %11, i32 noundef 1, i32 noundef 0, ptr noundef %12) #21
  %14 = tail call ptr @dcgettext(ptr noundef null, ptr noundef nonnull @.str.6, i32 noundef 5) #21
  %15 = tail call ptr @dt_mouse_action_create_simple(ptr noundef %13, i32 noundef 0, i32 noundef 4, ptr noundef %14) #21
  %16 = tail call ptr @dcgettext(ptr noundef null, ptr noundef nonnull @.str.7, i32 noundef 5) #21
  %17 = tail call ptr @dt_mouse_action_create_simple(ptr noundef %15, i32 noundef 3, i32 noundef 0, ptr noundef %16) #21
  %18 = tail call ptr @dcgettext(ptr noundef null, ptr noundef nonnull @.str.8, i32 noundef 5) #21
  %19 = tail call ptr @dt_mouse_action_create_simple(ptr noundef %17, i32 noundef 3, i32 noundef 1, ptr noundef %18) #21
  %20 = tail call ptr @dcgettext(ptr noundef null, ptr noundef nonnull @.str.9, i32 noundef 5) #21
  %21 = tail call ptr @dt_mouse_action_create_simple(ptr noundef %19, i32 noundef 3, i32 noundef 4, ptr noundef %20) #21
  ret ptr %21
}